target datalayout = "e-m:e-p270:32:32-p271:32:32-p272:64:64-i64:64-i128:128-f80:128-n8:16:32:64-S128"
target triple = "x86_64-unknown-linux-gnu"

%"struct.rocksdb::MutableCFOptions" = type { i64, i32, i64, double, i8, i64, i64, i64, %"class.std::shared_ptr", double, i8, i64, i64, i32, i32, i32, i64, i8, i64, i32, i64, double, i64, i64, %"class.std::vector.51", %"struct.rocksdb::CompactionOptionsFIFO", %"class.rocksdb::CompactionOptionsUniversal", i8, i64, i64, i8, i8, double, double, i64, i32, i8, i64, i8, i8, i8, i8, i8, [3 x i8], %"struct.rocksdb::CompressionOptions", %"struct.rocksdb::CompressionOptions", i8, i32, i8, i64, %"class.std::vector.61", i32, i32, %"class.std::vector.66" }
%"class.std::shared_ptr" = type { %"class.std::__shared_ptr" }
%"class.std::__shared_ptr" = type { ptr, %"class.std::__shared_count" }
%"class.std::__shared_count" = type { ptr }
%"class.std::vector.51" = type { %"struct.std::_Vector_base.52" }
%"struct.std::_Vector_base.52" = type { %"struct.std::_Vector_base<int, std::allocator<int>>::_Vector_impl" }
%"struct.std::_Vector_base<int, std::allocator<int>>::_Vector_impl" = type { %"struct.std::_Vector_base<int, std::allocator<int>>::_Vector_impl_data" }
%"struct.std::_Vector_base<int, std::allocator<int>>::_Vector_impl_data" = type { ptr, ptr, ptr }
%"struct.rocksdb::CompactionOptionsFIFO" = type { i64, i8, i64, %"class.std::vector.56" }
%"class.std::vector.56" = type { %"struct.std::_Vector_base.57" }
%"struct.std::_Vector_base.57" = type { %"struct.std::_Vector_base<rocksdb::FileTemperatureAge, std::allocator<rocksdb::FileTemperatureAge>>::_Vector_impl" }
%"struct.std::_Vector_base<rocksdb::FileTemperatureAge, std::allocator<rocksdb::FileTemperatureAge>>::_Vector_impl" = type { %"struct.std::_Vector_base<rocksdb::FileTemperatureAge, std::allocator<rocksdb::FileTemperatureAge>>::_Vector_impl_data" }
%"struct.std::_Vector_base<rocksdb::FileTemperatureAge, std::allocator<rocksdb::FileTemperatureAge>>::_Vector_impl_data" = type { ptr, ptr, ptr }
%"class.rocksdb::CompactionOptionsUniversal" = type <{ i32, i32, i32, i32, i32, i32, i8, i8, [2 x i8] }>
%"struct.rocksdb::CompressionOptions" = type <{ i32, i32, i32, i32, i32, i32, i8, [7 x i8], i64, i8, [3 x i8], i32, i8, [7 x i8] }>
%"class.std::vector.61" = type { %"struct.std::_Vector_base.62" }
%"struct.std::_Vector_base.62" = type { %"struct.std::_Vector_base<rocksdb::CompressionType, std::allocator<rocksdb::CompressionType>>::_Vector_impl" }
%"struct.std::_Vector_base<rocksdb::CompressionType, std::allocator<rocksdb::CompressionType>>::_Vector_impl" = type { %"struct.std::_Vector_base<rocksdb::CompressionType, std::allocator<rocksdb::CompressionType>>::_Vector_impl_data" }
%"struct.std::_Vector_base<rocksdb::CompressionType, std::allocator<rocksdb::CompressionType>>::_Vector_impl_data" = type { ptr, ptr, ptr }
%"class.std::vector.66" = type { %"struct.std::_Vector_base.67" }
%"struct.std::_Vector_base.67" = type { %"struct.std::_Vector_base<unsigned long, std::allocator<unsigned long>>::_Vector_impl" }
%"struct.std::_Vector_base<unsigned long, std::allocator<unsigned long>>::_Vector_impl" = type { %"struct.std::_Vector_base<unsigned long, std::allocator<unsigned long>>::_Vector_impl_data" }
%"struct.std::_Vector_base<unsigned long, std::allocator<unsigned long>>::_Vector_impl_data" = type { ptr, ptr, ptr }

; Function Attrs: mustprogress nounwind uwtable
define linkonce_odr noundef nonnull align 8 dereferenceable(8) ptr @_ZNKSt6vectorImSaImEEixEm(ptr noundef nonnull align 8 dereferenceable(24) %this, i64 noundef %__n) #1 comdat align 2 {
entry:
  %this.addr = alloca ptr, align 8
  %__n.addr = alloca i64, align 8
  store ptr %this, ptr %this.addr, align 8
  store i64 %__n, ptr %__n.addr, align 8
  %this1 = load ptr, ptr %this.addr, align 8
  %_M_impl = getelementptr inbounds %"struct.std::_Vector_base.67", ptr %this1, i32 0, i32 0
  %_M_start = getelementptr inbounds %"struct.std::_Vector_base<unsigned long, std::allocator<unsigned long>>::_Vector_impl_data", ptr %_M_impl, i32 0, i32 0
  %0 = load ptr, ptr %_M_start, align 8
  %1 = load i64, ptr %__n.addr, align 8
  %add.ptr = getelementptr inbounds i64, ptr %0, i64 %1
  ret ptr %add.ptr
}

; Function Attrs: mustprogress nounwind uwtable
define noundef i64 @_ZN7rocksdb19MaxFileSizeForLevelERKNS_16MutableCFOptionsEiNS_15CompactionStyleEib(ptr noundef nonnull align 8 dereferenceable(560) %cf_options, i32 noundef %level, i8 noundef signext %compaction_style, i32 noundef %base_level, i1 noundef zeroext %level_compaction_dynamic_level_bytes) #1 {
entry:
  %retval = alloca i64, align 8
  %cf_options.addr = alloca ptr, align 8
  %level.addr = alloca i32, align 4
  %compaction_style.addr = alloca i8, align 1
  %base_level.addr = alloca i32, align 4
  %level_compaction_dynamic_level_bytes.addr = alloca i8, align 1
  store ptr %cf_options, ptr %cf_options.addr, align 8
  store i32 %level, ptr %level.addr, align 4
  store i8 %compaction_style, ptr %compaction_style.addr, align 1
  store i32 %base_level, ptr %base_level.addr, align 4
  %frombool = zext i1 %level_compaction_dynamic_level_bytes to i8
  store i8 %frombool, ptr %level_compaction_dynamic_level_bytes.addr, align 1
  %0 = load i8, ptr %level_compaction_dynamic_level_bytes.addr, align 1
  %tobool = trunc i8 %0 to i1
  br i1 %tobool, label %lor.lhs.false, label %if.then

lor.lhs.false:                                    ; preds = %entry
  %1 = load i32, ptr %level.addr, align 4
  %2 = load i32, ptr %base_level.addr, align 4
  %cmp = icmp slt i32 %1, %2
  br i1 %cmp, label %if.then, label %lor.lhs.false1

lor.lhs.false1:                                   ; preds = %lor.lhs.false
  %3 = load i8, ptr %compaction_style.addr, align 1
  %conv = sext i8 %3 to i32
  %cmp2 = icmp ne i32 %conv, 0
  br i1 %cmp2, label %if.then, label %if.else

if.then:                                          ; preds = %lor.lhs.false1, %lor.lhs.false, %entry
  %4 = load ptr, ptr %cf_options.addr, align 8
  %max_file_size = getelementptr inbounds %"struct.rocksdb::MutableCFOptions", ptr %4, i32 0, i32 53
  %5 = load i32, ptr %level.addr, align 4
  %conv3 = sext i32 %5 to i64
  %call = call noundef nonnull align 8 dereferenceable(8) ptr @_ZNKSt6vectorImSaImEEixEm(ptr noundef nonnull align 8 dereferenceable(24) %max_file_size, i64 noundef %conv3) #4
  %6 = load i64, ptr %call, align 8
  store i64 %6, ptr %retval, align 8
  br label %return

if.else:                                          ; preds = %lor.lhs.false1
  %7 = load ptr, ptr %cf_options.addr, align 8
  %max_file_size4 = getelementptr inbounds %"struct.rocksdb::MutableCFOptions", ptr %7, i32 0, i32 53
  %8 = load i32, ptr %level.addr, align 4
  %9 = load i32, ptr %base_level.addr, align 4
  %sub = sub nsw i32 %8, %9
  %conv5 = sext i32 %sub to i64
  %call6 = call noundef nonnull align 8 dereferenceable(8) ptr @_ZNKSt6vectorImSaImEEixEm(ptr noundef nonnull align 8 dereferenceable(24) %max_file_size4, i64 noundef %conv5) #4
  %10 = load i64, ptr %call6, align 8
  store i64 %10, ptr %retval, align 8
  br label %return

return:                                           ; preds = %if.else, %if.then
  %11 = load i64, ptr %retval, align 8
  ret i64 %11
}