; Function Attrs: mustprogress nofree norecurse nosync nounwind willreturn memory(read, inaccessiblemem: none) uwtable
define noundef i64 @_ZN7rocksdb19MaxFileSizeForLevelERKNS_16MutableCFOptionsEiNS_15CompactionStyleEib(ptr nocapture noundef nonnull readonly align 8 dereferenceable(560) %cf_options, i32 noundef %level, i8 noundef signext %compaction_style, i32 noundef %base_level, i1 noundef zeroext %level_compaction_dynamic_level_bytes) local_unnamed_addr #11 {
entry:
  br i1 %level_compaction_dynamic_level_bytes, label %lor.lhs.false, label %return

lor.lhs.false:                                    ; preds = %entry
  %cmp = icmp slt i32 %level, %base_level
  %cmp2 = icmp ne i8 %compaction_style, 0
  %or.cond = or i1 %cmp2, %cmp
  %sub = select i1 %or.cond, i32 0, i32 %base_level
  %spec.select = sub nsw i32 %level, %sub
  br label %return

return:                                           ; preds = %lor.lhs.false, %entry
  %sub.sink = phi i32 [ %level, %entry ], [ %spec.select, %lor.lhs.false ]
  %max_file_size4.sink = getelementptr inbounds i8, ptr %cf_options, i64 536
  %conv5 = sext i32 %sub.sink to i64
  %0 = load ptr, ptr %max_file_size4.sink, align 8
  %add.ptr.i5 = getelementptr inbounds i64, ptr %0, i64 %conv5
  %retval.0 = load i64, ptr %add.ptr.i5, align 8
  ret i64 %retval.0
}